target datalayout = "e-m:e-p270:32:32-p271:32:32-p272:64:64-i64:64-i128:128-f80:128-n8:16:32:64-S128"
target triple = "x86_64-pc-linux-gnu"

@.str.1114 = private unnamed_addr constant [24 x i8] c"%s: 0x%08x (%s: 0x%06x)\00", align 1
@.str.1115 = private unnamed_addr constant [20 x i8] c"unknown kind (%02x)\00", align 1
@.str.1116 = private unnamed_addr constant [16 x i8] c"%s: %s (0x%08x)\00", align 1

; Function Attrs: null_pointer_is_valid sspstrong uwtable
define internal zeroext i1 @rtps_util_add_entity_id(ptr noundef %0, ptr noundef %1, i32 noundef %2, i32 noundef %3, i32 noundef %4, i32 noundef %5, i32 noundef %6, ptr noundef %7, ptr noundef %8) #0 {
  %10 = alloca ptr, align 8
  %11 = alloca ptr, align 8
  %12 = alloca i32, align 4
  %13 = alloca i32, align 4
  %14 = alloca i32, align 4
  %15 = alloca i32, align 4
  %16 = alloca i32, align 4
  %17 = alloca ptr, align 8
  %18 = alloca ptr, align 8
  %19 = alloca i32, align 4
  %20 = alloca i32, align 4
  %21 = alloca i8, align 1
  %22 = alloca ptr, align 8
  %23 = alloca ptr, align 8
  %24 = alloca ptr, align 8
  store ptr %0, ptr %10, align 8
  store ptr %1, ptr %11, align 8
  store i32 %2, ptr %12, align 4
  store i32 %3, ptr %13, align 4
  store i32 %4, ptr %14, align 4
  store i32 %5, ptr %15, align 4
  store i32 %6, ptr %16, align 4
  store ptr %7, ptr %17, align 8
  store ptr %8, ptr %18, align 8
  call void @llvm.lifetime.start.p0(i64 4, ptr %19) #14
  %25 = load ptr, ptr %11, align 8
  %26 = load i32, ptr %12, align 4
  %27 = call i32 @tvb_get_ntohl(ptr noundef %25, i32 noundef %26)
  store i32 %27, ptr %19, align 4
  call void @llvm.lifetime.start.p0(i64 4, ptr %20) #14
  %28 = load i32, ptr %19, align 4
  %29 = lshr i32 %28, 8
  store i32 %29, ptr %20, align 4
  call void @llvm.lifetime.start.p0(i64 1, ptr %21) #14
  %30 = load i32, ptr %19, align 4
  %31 = and i32 %30, 255
  %32 = trunc i32 %31 to i8
  store i8 %32, ptr %21, align 1
  call void @llvm.lifetime.start.p0(i64 8, ptr %22) #14
  %33 = load i32, ptr %19, align 4
  %34 = call ptr @try_val_to_str(i32 noundef %33, ptr noundef @entity_id_vals)
  store ptr %34, ptr %22, align 8
  %35 = load ptr, ptr %18, align 8
  %36 = icmp ne ptr %35, null
  br i1 %36, label %37, label %40

37:                                               ; preds = %9
  %38 = load i32, ptr %19, align 4
  %39 = load ptr, ptr %18, align 8
  store i32 %38, ptr %39, align 4
  br label %40

40:                                               ; preds = %37, %9
  %41 = load ptr, ptr %10, align 8
  %42 = icmp ne ptr %41, null
  br i1 %42, label %43, label %84

43:                                               ; preds = %40
  call void @llvm.lifetime.start.p0(i64 8, ptr %23) #14
  call void @llvm.lifetime.start.p0(i64 8, ptr %24) #14
  %44 = load ptr, ptr %22, align 8
  %45 = icmp eq ptr %44, null
  br i1 %45, label %46, label %59

46:                                               ; preds = %43
  %47 = load ptr, ptr %10, align 8
  %48 = load i32, ptr %13, align 4
  %49 = load ptr, ptr %11, align 8
  %50 = load i32, ptr %12, align 4
  %51 = load i32, ptr %19, align 4
  %52 = load ptr, ptr %17, align 8
  %53 = load i32, ptr %19, align 4
  %54 = load i8, ptr %21, align 1
  %55 = zext i8 %54 to i32
  %56 = call ptr @val_to_str(i32 noundef %55, ptr noundef @entity_kind_vals, ptr noundef @.str.1115)
  %57 = load i32, ptr %20, align 4
  %58 = call ptr (ptr, i32, ptr, i32, i32, i32, ptr, ...) @proto_tree_add_uint_format(ptr noundef %47, i32 noundef %48, ptr noundef %49, i32 noundef %50, i32 noundef 4, i32 noundef %51, ptr noundef @.str.1114, ptr noundef %52, i32 noundef %53, ptr noundef %56, i32 noundef %57)
  store ptr %58, ptr %24, align 8
  br label %69

59:                                               ; preds = %43
  %60 = load ptr, ptr %10, align 8
  %61 = load i32, ptr %13, align 4
  %62 = load ptr, ptr %11, align 8
  %63 = load i32, ptr %12, align 4
  %64 = load i32, ptr %19, align 4
  %65 = load ptr, ptr %17, align 8
  %66 = load ptr, ptr %22, align 8
  %67 = load i32, ptr %19, align 4
  %68 = call ptr (ptr, i32, ptr, i32, i32, i32, ptr, ...) @proto_tree_add_uint_format(ptr noundef %60, i32 noundef %61, ptr noundef %62, i32 noundef %63, i32 noundef 4, i32 noundef %64, ptr noundef @.str.1116, ptr noundef %65, ptr noundef %66, i32 noundef %67)
  store ptr %68, ptr %24, align 8
  br label %69

69:                                               ; preds = %59, %46
  %70 = load ptr, ptr %24, align 8
  %71 = load i32, ptr %16, align 4
  %72 = call ptr @proto_item_add_subtree(ptr noundef %70, i32 noundef %71)
  store ptr %72, ptr %23, align 8
  %73 = load ptr, ptr %23, align 8
  %74 = load i32, ptr %14, align 4
  %75 = load ptr, ptr %11, align 8
  %76 = load i32, ptr %12, align 4
  %77 = call ptr @proto_tree_add_item(ptr noundef %73, i32 noundef %74, ptr noundef %75, i32 noundef %76, i32 noundef 3, i32 noundef 0)
  %78 = load ptr, ptr %23, align 8
  %79 = load i32, ptr %15, align 4
  %80 = load ptr, ptr %11, align 8
  %81 = load i32, ptr %12, align 4
  %82 = add i32 %81, 3
  %83 = call ptr @proto_tree_add_item(ptr noundef %78, i32 noundef %79, ptr noundef %80, i32 noundef %82, i32 noundef 1, i32 noundef 0)
  call void @llvm.lifetime.end.p0(i64 8, ptr %24) #14
  call void @llvm.lifetime.end.p0(i64 8, ptr %23) #14
  br label %84

84:                                               ; preds = %69, %40
  %85 = load i8, ptr %21, align 1
  %86 = zext i8 %85 to i32
  %87 = and i32 %86, 192
  %88 = icmp eq i32 %87, 192
  br i1 %88, label %101, label %89

89:                                               ; preds = %84
  %90 = load i32, ptr %19, align 4
  %91 = icmp eq i32 %90, 131202
  br i1 %91, label %101, label %92

92:                                               ; preds = %89
  %93 = load i32, ptr %19, align 4
  %94 = icmp eq i32 %93, 131207
  br i1 %94, label %101, label %95

95:                                               ; preds = %92
  %96 = load i32, ptr %19, align 4
  %97 = icmp eq i32 %96, 131458
  br i1 %97, label %101, label %98

98:                                               ; preds = %95
  %99 = load i32, ptr %19, align 4
  %100 = icmp eq i32 %99, 131463
  br label %101

101:                                              ; preds = %98, %95, %92, %89, %84
  %102 = phi i1 [ true, %95 ], [ true, %92 ], [ true, %89 ], [ true, %84 ], [ %100, %98 ]
  call void @llvm.lifetime.end.p0(i64 8, ptr %22) #14
  call void @llvm.lifetime.end.p0(i64 1, ptr %21) #14
  call void @llvm.lifetime.end.p0(i64 4, ptr %20) #14
  call void @llvm.lifetime.end.p0(i64 4, ptr %19) #14
  ret i1 %102
}