; Function Attrs: null_pointer_is_valid sspstrong uwtable
define internal fastcc zeroext i1 @rtps_util_add_entity_id(ptr noundef %0, ptr noundef %1, i32 noundef %2, i32 noundef %3, i32 noundef %4, i32 noundef %5, i32 noundef %6, ptr noundef %7, ptr noundef writeonly captures(address_is_null) %8) unnamed_addr #0 {
  %10 = tail call i32 @tvb_get_ntohl(ptr noundef %1, i32 noundef %2)
  %11 = lshr i32 %10, 8
  %12 = tail call ptr @try_val_to_str(i32 noundef %10, ptr noundef nonnull @entity_id_vals)
  %.not = icmp eq ptr %8, null
  br i1 %.not, label %14, label %13

13:                                               ; preds = %9
  store i32 %10, ptr %8, align 4
  br label %14

14:                                               ; preds = %13, %9
  %.not50 = icmp eq ptr %0, null
  br i1 %.not50, label %28, label %15

15:                                               ; preds = %14
  %16 = icmp eq ptr %12, null
  br i1 %16, label %17, label %21

17:                                               ; preds = %15
  %18 = and i32 %10, 255
  %19 = tail call ptr @val_to_str(i32 noundef %18, ptr noundef nonnull @entity_kind_vals, ptr noundef nonnull @.str.1115)
  %20 = tail call ptr (ptr, i32, ptr, i32, i32, i32, ptr, ...) @proto_tree_add_uint_format(ptr noundef nonnull %0, i32 noundef %3, ptr noundef %1, i32 noundef %2, i32 noundef 4, i32 noundef %10, ptr noundef nonnull @.str.1114, ptr noundef %7, i32 noundef %10, ptr noundef %19, i32 noundef %11)
  br label %23

21:                                               ; preds = %15
  %22 = tail call ptr (ptr, i32, ptr, i32, i32, i32, ptr, ...) @proto_tree_add_uint_format(ptr noundef nonnull %0, i32 noundef %3, ptr noundef %1, i32 noundef %2, i32 noundef 4, i32 noundef %10, ptr noundef nonnull @.str.1116, ptr noundef %7, ptr noundef nonnull %12, i32 noundef %10)
  br label %23

23:                                               ; preds = %21, %17
  %.0 = phi ptr [ %20, %17 ], [ %22, %21 ]
  %24 = tail call ptr @proto_item_add_subtree(ptr noundef %.0, i32 noundef %6)
  %25 = tail call ptr @proto_tree_add_item(ptr noundef %24, i32 noundef %4, ptr noundef %1, i32 noundef %2, i32 noundef 3, i32 noundef 0)
  %26 = add i32 %2, 3
  %27 = tail call ptr @proto_tree_add_item(ptr noundef %24, i32 noundef %5, ptr noundef %1, i32 noundef %26, i32 noundef 1, i32 noundef 0)
  br label %28

28:                                               ; preds = %23, %14
  %29 = and i32 %10, 192
  %30 = icmp eq i32 %29, 192
  %31 = icmp eq i32 %10, 131202
  %or.cond = or i1 %31, %30
  %32 = icmp eq i32 %10, 131207
  %or.cond3 = or i1 %32, %or.cond
  %33 = icmp eq i32 %10, 131458
  %or.cond5 = or i1 %33, %or.cond3
  %34 = icmp eq i32 %10, 131463
  %spec.select = or i1 %34, %or.cond5
  ret i1 %spec.select
}